target datalayout = "e-m:e-p270:32:32-p271:32:32-p272:64:64-i64:64-i128:128-f80:128-n8:16:32:64-S128"
target triple = "x86_64-unknown-linux-gnu"

%"class.sat::literal" = type { i32 }
%"class.sat::use_list" = type { %class.vector }
%class.vector = type { ptr }
%class.ptr_vector = type { %class.vector.0 }
%class.vector.0 = type { ptr }
%"class.sat::clause" = type { i32, i32, i32, %class.approx_set_tpl, i32, [0 x %"class.sat::literal"] }
%class.approx_set_tpl = type { i32 }
%"class.sat::simplifier" = type { ptr, i32, %"class.sat::use_list", %"class.sat::ext_use_list", %"class.sat::clause_set", %class.svector.3, i32, %class.tracked_uint_set, i8, %"class.sat::tmp_clause", %class.svector.5, i32, i32, i8, i8, i8, i8, i32, i8, i8, i32, i8, i32, i8, i8, i32, i32, i32, i32, i32, i32, i32, i32, i32, i32, i8, i32, i8, i8, i32, i32, i32, i32, i32, i32, i32, i32, i32, i32, i32, i8, i32, %class.ptr_vector, %class.svector.7, %class.svector.9, %class.svector.9, %class.svector.7 }
%"class.sat::ext_use_list" = type { %class.vector.1 }
%class.vector.1 = type { ptr }
%"class.sat::clause_set" = type { %class.svector, %class.ptr_vector }
%class.svector = type { %class.vector.2 }
%class.vector.2 = type { ptr }
%class.svector.3 = type { %class.vector.4 }
%class.vector.4 = type { ptr }
%class.tracked_uint_set = type { %class.svector.5, %class.svector }
%"class.sat::tmp_clause" = type { ptr }
%class.svector.5 = type { %class.vector.6 }
%class.vector.6 = type { ptr }
%class.svector.9 = type { %class.vector.10 }
%class.vector.10 = type { ptr }
%class.svector.7 = type { %class.vector.8 }
%class.vector.8 = type { ptr }

@_ZN3satL12null_literalE = internal global %"class.sat::literal" zeroinitializer, align 4

; Function Attrs: mustprogress nounwind uwtable
define linkonce_odr hidden noundef nonnull align 1 dereferenceable(1) ptr @_ZNK6vectorIcLb0EjEixEj(ptr noundef nonnull align 8 dereferenceable(8) %this, i32 noundef %idx) #4 comdat align 2 {
entry:
  %this.addr = alloca ptr, align 8
  %idx.addr = alloca i32, align 4
  store ptr %this, ptr %this.addr, align 8
  store i32 %idx, ptr %idx.addr, align 4
  %this1 = load ptr, ptr %this.addr, align 8
  %m_data = getelementptr inbounds %class.vector.6, ptr %this1, i32 0, i32 0
  %0 = load ptr, ptr %m_data, align 8
  %1 = load i32, ptr %idx.addr, align 4
  %idxprom = zext i32 %1 to i64
  %arrayidx = getelementptr inbounds i8, ptr %0, i64 %idxprom
  ret ptr %arrayidx
}

; Function Attrs: mustprogress nounwind uwtable
define linkonce_odr hidden noundef nonnull align 1 dereferenceable(1) ptr @_ZN6vectorIcLb0EjEixEj(ptr noundef nonnull align 8 dereferenceable(8) %this, i32 noundef %idx) #4 comdat align 2 {
entry:
  %this.addr = alloca ptr, align 8
  %idx.addr = alloca i32, align 4
  store ptr %this, ptr %this.addr, align 8
  store i32 %idx, ptr %idx.addr, align 4
  %this1 = load ptr, ptr %this.addr, align 8
  %m_data = getelementptr inbounds %class.vector.6, ptr %this1, i32 0, i32 0
  %0 = load ptr, ptr %m_data, align 8
  %1 = load i32, ptr %idx.addr, align 4
  %idxprom = zext i32 %1 to i64
  %arrayidx = getelementptr inbounds i8, ptr %0, i64 %idxprom
  ret ptr %arrayidx
}

; Function Attrs: mustprogress nounwind uwtable
define linkonce_odr hidden noundef i32 @_ZNK3sat7literal5indexEv(ptr noundef nonnull align 4 dereferenceable(4) %this) #4 comdat align 2 {
entry:
  %this.addr = alloca ptr, align 8
  store ptr %this, ptr %this.addr, align 8
  %this1 = load ptr, ptr %this.addr, align 8
  %m_val = getelementptr inbounds %"class.sat::literal", ptr %this1, i32 0, i32 0
  %0 = load i32, ptr %m_val, align 4
  ret i32 %0
}

; Function Attrs: mustprogress uwtable
define linkonce_odr hidden void @_ZN3sat10simplifier14unmark_visitedENS_7literalE(ptr noundef nonnull align 8 dereferenceable(288) %this, i32 %l.coerce) #5 comdat align 2 {
entry:
  %l = alloca %"class.sat::literal", align 4
  %this.addr = alloca ptr, align 8
  %coerce.dive = getelementptr inbounds %"class.sat::literal", ptr %l, i32 0, i32 0
  store i32 %l.coerce, ptr %coerce.dive, align 4
  store ptr %this, ptr %this.addr, align 8
  %this1 = load ptr, ptr %this.addr, align 8
  %m_visited = getelementptr inbounds %"class.sat::simplifier", ptr %this1, i32 0, i32 10
  %call = call noundef i32 @_ZNK3sat7literal5indexEv(ptr noundef nonnull align 4 dereferenceable(4) %l)
  %call2 = call noundef nonnull align 1 dereferenceable(1) ptr @_ZN6vectorIcLb0EjEixEj(ptr noundef nonnull align 8 dereferenceable(8) %m_visited, i32 noundef %call)
  store i8 0, ptr %call2, align 1
  ret void
}

; Function Attrs: mustprogress nounwind uwtable
define linkonce_odr hidden i32 @_ZN3satcoENS_7literalE(i32 %l.coerce) #4 comdat {
entry:
  %retval = alloca %"class.sat::literal", align 4
  %l = alloca %"class.sat::literal", align 4
  %coerce.dive = getelementptr inbounds %"class.sat::literal", ptr %l, i32 0, i32 0
  store i32 %l.coerce, ptr %coerce.dive, align 4
  %m_val = getelementptr inbounds %"class.sat::literal", ptr %l, i32 0, i32 0
  %0 = load i32, ptr %m_val, align 4
  %xor = xor i32 %0, 1
  %m_val1 = getelementptr inbounds %"class.sat::literal", ptr %l, i32 0, i32 0
  store i32 %xor, ptr %m_val1, align 4
  call void @llvm.memcpy.p0.p0.i64(ptr align 4 %retval, ptr align 4 %l, i64 4, i1 false)
  %coerce.dive2 = getelementptr inbounds %"class.sat::literal", ptr %retval, i32 0, i32 0
  %1 = load i32, ptr %coerce.dive2, align 4
  ret i32 %1
}

; Function Attrs: mustprogress nounwind uwtable
define linkonce_odr hidden noundef zeroext i1 @_ZN3sateqERKNS_7literalES2_(ptr noundef nonnull align 4 dereferenceable(4) %l1, ptr noundef nonnull align 4 dereferenceable(4) %l2) #4 comdat {
entry:
  %l1.addr = alloca ptr, align 8
  %l2.addr = alloca ptr, align 8
  store ptr %l1, ptr %l1.addr, align 8
  store ptr %l2, ptr %l2.addr, align 8
  %0 = load ptr, ptr %l1.addr, align 8
  %m_val = getelementptr inbounds %"class.sat::literal", ptr %0, i32 0, i32 0
  %1 = load i32, ptr %m_val, align 4
  %2 = load ptr, ptr %l2.addr, align 8
  %m_val1 = getelementptr inbounds %"class.sat::literal", ptr %2, i32 0, i32 0
  %3 = load i32, ptr %m_val1, align 4
  %cmp = icmp eq i32 %1, %3
  ret i1 %cmp
}

; Function Attrs: mustprogress uwtable
define linkonce_odr hidden noundef zeroext i1 @_ZNK3sat10simplifier9is_markedENS_7literalE(ptr noundef nonnull align 8 dereferenceable(288) %this, i32 %l.coerce) #5 comdat align 2 {
entry:
  %l = alloca %"class.sat::literal", align 4
  %this.addr = alloca ptr, align 8
  %coerce.dive = getelementptr inbounds %"class.sat::literal", ptr %l, i32 0, i32 0
  store i32 %l.coerce, ptr %coerce.dive, align 4
  store ptr %this, ptr %this.addr, align 8
  %this1 = load ptr, ptr %this.addr, align 8
  %m_visited = getelementptr inbounds %"class.sat::simplifier", ptr %this1, i32 0, i32 10
  %call = call noundef i32 @_ZNK3sat7literal5indexEv(ptr noundef nonnull align 4 dereferenceable(4) %l)
  %call2 = call noundef nonnull align 1 dereferenceable(1) ptr @_ZNK6vectorIcLb0EjEixEj(ptr noundef nonnull align 8 dereferenceable(8) %m_visited, i32 noundef %call)
  %0 = load i8, ptr %call2, align 1
  %conv = sext i8 %0 to i32
  %cmp = icmp ne i32 %conv, 0
  ret i1 %cmp
}

; Function Attrs: mustprogress uwtable
define linkonce_odr hidden void @_ZN3sat10simplifier12mark_visitedENS_7literalE(ptr noundef nonnull align 8 dereferenceable(288) %this, i32 %l.coerce) #5 comdat align 2 {
entry:
  %l = alloca %"class.sat::literal", align 4
  %this.addr = alloca ptr, align 8
  %coerce.dive = getelementptr inbounds %"class.sat::literal", ptr %l, i32 0, i32 0
  store i32 %l.coerce, ptr %coerce.dive, align 4
  store ptr %this, ptr %this.addr, align 8
  %this1 = load ptr, ptr %this.addr, align 8
  %m_visited = getelementptr inbounds %"class.sat::simplifier", ptr %this1, i32 0, i32 10
  %call = call noundef i32 @_ZNK3sat7literal5indexEv(ptr noundef nonnull align 4 dereferenceable(4) %l)
  %call2 = call noundef nonnull align 1 dereferenceable(1) ptr @_ZN6vectorIcLb0EjEixEj(ptr noundef nonnull align 8 dereferenceable(8) %m_visited, i32 noundef %call)
  store i8 1, ptr %call2, align 1
  ret void
}

; Function Attrs: mustprogress nounwind uwtable
define linkonce_odr hidden noundef ptr @_ZNK3sat6clause3endEv(ptr noundef nonnull align 4 dereferenceable(20) %this) #4 comdat align 2 {
entry:
  %this.addr = alloca ptr, align 8
  store ptr %this, ptr %this.addr, align 8
  %this1 = load ptr, ptr %this.addr, align 8
  %m_lits = getelementptr inbounds %"class.sat::clause", ptr %this1, i32 0, i32 5
  %arraydecay = getelementptr inbounds [0 x %"class.sat::literal"], ptr %m_lits, i64 0, i64 0
  %m_size = getelementptr inbounds %"class.sat::clause", ptr %this1, i32 0, i32 1
  %0 = load i32, ptr %m_size, align 4
  %idx.ext = zext i32 %0 to i64
  %add.ptr = getelementptr inbounds %"class.sat::literal", ptr %arraydecay, i64 %idx.ext
  ret ptr %add.ptr
}

; Function Attrs: mustprogress nounwind uwtable
define linkonce_odr hidden noundef ptr @_ZNK3sat6clause5beginEv(ptr noundef nonnull align 4 dereferenceable(20) %this) #4 comdat align 2 {
entry:
  %this.addr = alloca ptr, align 8
  store ptr %this, ptr %this.addr, align 8
  %this1 = load ptr, ptr %this.addr, align 8
  %m_lits = getelementptr inbounds %"class.sat::clause", ptr %this1, i32 0, i32 5
  %arraydecay = getelementptr inbounds [0 x %"class.sat::literal"], ptr %m_lits, i64 0, i64 0
  ret ptr %arraydecay
}

; Function Attrs: mustprogress uwtable
define hidden noundef zeroext i1 @_ZN3sat10simplifier9subsumes1ERKNS_6clauseES3_RNS_7literalE(ptr noundef nonnull align 8 dereferenceable(288) %this, ptr noundef nonnull align 4 dereferenceable(20) %c1, ptr noundef nonnull align 4 dereferenceable(20) %c2, ptr noundef nonnull align 4 dereferenceable(4) %l) #5 align 2 {
entry:
  %this.addr = alloca ptr, align 8
  %c1.addr = alloca ptr, align 8
  %c2.addr = alloca ptr, align 8
  %l.addr = alloca ptr, align 8
  %__range1 = alloca ptr, align 8
  %__begin1 = alloca ptr, align 8
  %__end1 = alloca ptr, align 8
  %lit = alloca %"class.sat::literal", align 4
  %agg.tmp = alloca %"class.sat::literal", align 4
  %r = alloca i8, align 1
  %__range13 = alloca ptr, align 8
  %__begin14 = alloca ptr, align 8
  %__end16 = alloca ptr, align 8
  %lit11 = alloca %"class.sat::literal", align 4
  %agg.tmp12 = alloca %"class.sat::literal", align 4
  %agg.tmp16 = alloca %"class.sat::literal", align 4
  %agg.tmp17 = alloca %"class.sat::literal", align 4
  %ref.tmp = alloca %"class.sat::literal", align 4
  %agg.tmp24 = alloca %"class.sat::literal", align 4
  %__range132 = alloca ptr, align 8
  %__begin133 = alloca ptr, align 8
  %__end135 = alloca ptr, align 8
  %lit40 = alloca %"class.sat::literal", align 4
  %agg.tmp41 = alloca %"class.sat::literal", align 4
  store ptr %this, ptr %this.addr, align 8
  store ptr %c1, ptr %c1.addr, align 8
  store ptr %c2, ptr %c2.addr, align 8
  store ptr %l, ptr %l.addr, align 8
  %this1 = load ptr, ptr %this.addr, align 8
  %0 = load ptr, ptr %c2.addr, align 8
  store ptr %0, ptr %__range1, align 8
  %1 = load ptr, ptr %__range1, align 8
  %call = call noundef ptr @_ZNK3sat6clause5beginEv(ptr noundef nonnull align 4 dereferenceable(20) %1)
  store ptr %call, ptr %__begin1, align 8
  %2 = load ptr, ptr %__range1, align 8
  %call2 = call noundef ptr @_ZNK3sat6clause3endEv(ptr noundef nonnull align 4 dereferenceable(20) %2)
  store ptr %call2, ptr %__end1, align 8
  br label %for.cond

for.cond:                                         ; preds = %for.inc, %entry
  %3 = load ptr, ptr %__begin1, align 8
  %4 = load ptr, ptr %__end1, align 8
  %cmp = icmp ne ptr %3, %4
  br i1 %cmp, label %for.body, label %for.end

for.body:                                         ; preds = %for.cond
  %5 = load ptr, ptr %__begin1, align 8
  call void @llvm.memcpy.p0.p0.i64(ptr align 4 %lit, ptr align 4 %5, i64 4, i1 false)
  call void @llvm.memcpy.p0.p0.i64(ptr align 4 %agg.tmp, ptr align 4 %lit, i64 4, i1 false)
  %coerce.dive = getelementptr inbounds %"class.sat::literal", ptr %agg.tmp, i32 0, i32 0
  %6 = load i32, ptr %coerce.dive, align 4
  call void @_ZN3sat10simplifier12mark_visitedENS_7literalE(ptr noundef nonnull align 8 dereferenceable(288) %this1, i32 %6)
  br label %for.inc

for.inc:                                          ; preds = %for.body
  %7 = load ptr, ptr %__begin1, align 8
  %incdec.ptr = getelementptr inbounds %"class.sat::literal", ptr %7, i32 1
  store ptr %incdec.ptr, ptr %__begin1, align 8
  br label %for.cond

for.end:                                          ; preds = %for.cond
  store i8 1, ptr %r, align 1
  %8 = load ptr, ptr %l.addr, align 8
  call void @llvm.memcpy.p0.p0.i64(ptr align 4 %8, ptr align 4 @_ZN3satL12null_literalE, i64 4, i1 false)
  %9 = load ptr, ptr %c1.addr, align 8
  store ptr %9, ptr %__range13, align 8
  %10 = load ptr, ptr %__range13, align 8
  %call5 = call noundef ptr @_ZNK3sat6clause5beginEv(ptr noundef nonnull align 4 dereferenceable(20) %10)
  store ptr %call5, ptr %__begin14, align 8
  %11 = load ptr, ptr %__range13, align 8
  %call7 = call noundef ptr @_ZNK3sat6clause3endEv(ptr noundef nonnull align 4 dereferenceable(20) %11)
  store ptr %call7, ptr %__end16, align 8
  br label %for.cond8

for.cond8:                                        ; preds = %for.inc29, %for.end
  %12 = load ptr, ptr %__begin14, align 8
  %13 = load ptr, ptr %__end16, align 8
  %cmp9 = icmp ne ptr %12, %13
  br i1 %cmp9, label %for.body10, label %for.end31

for.body10:                                       ; preds = %for.cond8
  %14 = load ptr, ptr %__begin14, align 8
  call void @llvm.memcpy.p0.p0.i64(ptr align 4 %lit11, ptr align 4 %14, i64 4, i1 false)
  call void @llvm.memcpy.p0.p0.i64(ptr align 4 %agg.tmp12, ptr align 4 %lit11, i64 4, i1 false)
  %coerce.dive13 = getelementptr inbounds %"class.sat::literal", ptr %agg.tmp12, i32 0, i32 0
  %15 = load i32, ptr %coerce.dive13, align 4
  %call14 = call noundef zeroext i1 @_ZNK3sat10simplifier9is_markedENS_7literalE(ptr noundef nonnull align 8 dereferenceable(288) %this1, i32 %15)
  br i1 %call14, label %if.end28, label %if.then

if.then:                                          ; preds = %for.body10
  %16 = load ptr, ptr %l.addr, align 8
  %call15 = call noundef zeroext i1 @_ZN3sateqERKNS_7literalES2_(ptr noundef nonnull align 4 dereferenceable(4) %16, ptr noundef nonnull align 4 dereferenceable(4) @_ZN3satL12null_literalE)
  br i1 %call15, label %land.lhs.true, label %if.else

land.lhs.true:                                    ; preds = %if.then
  call void @llvm.memcpy.p0.p0.i64(ptr align 4 %agg.tmp17, ptr align 4 %lit11, i64 4, i1 false)
  %coerce.dive18 = getelementptr inbounds %"class.sat::literal", ptr %agg.tmp17, i32 0, i32 0
  %17 = load i32, ptr %coerce.dive18, align 4
  %call19 = call i32 @_ZN3satcoENS_7literalE(i32 %17)
  %coerce.dive20 = getelementptr inbounds %"class.sat::literal", ptr %agg.tmp16, i32 0, i32 0
  store i32 %call19, ptr %coerce.dive20, align 4
  %coerce.dive21 = getelementptr inbounds %"class.sat::literal", ptr %agg.tmp16, i32 0, i32 0
  %18 = load i32, ptr %coerce.dive21, align 4
  %call22 = call noundef zeroext i1 @_ZNK3sat10simplifier9is_markedENS_7literalE(ptr noundef nonnull align 8 dereferenceable(288) %this1, i32 %18)
  br i1 %call22, label %if.then23, label %if.else

if.then23:                                        ; preds = %land.lhs.true
  call void @llvm.memcpy.p0.p0.i64(ptr align 4 %agg.tmp24, ptr align 4 %lit11, i64 4, i1 false)
  %coerce.dive25 = getelementptr inbounds %"class.sat::literal", ptr %agg.tmp24, i32 0, i32 0
  %19 = load i32, ptr %coerce.dive25, align 4
  %call26 = call i32 @_ZN3satcoENS_7literalE(i32 %19)
  %coerce.dive27 = getelementptr inbounds %"class.sat::literal", ptr %ref.tmp, i32 0, i32 0
  store i32 %call26, ptr %coerce.dive27, align 4
  %20 = load ptr, ptr %l.addr, align 8
  call void @llvm.memcpy.p0.p0.i64(ptr align 4 %20, ptr align 4 %ref.tmp, i64 4, i1 false)
  br label %if.end

if.else:                                          ; preds = %land.lhs.true, %if.then
  %21 = load ptr, ptr %l.addr, align 8
  call void @llvm.memcpy.p0.p0.i64(ptr align 4 %21, ptr align 4 @_ZN3satL12null_literalE, i64 4, i1 false)
  store i8 0, ptr %r, align 1
  br label %for.end31

if.end:                                           ; preds = %if.then23
  br label %if.end28

if.end28:                                         ; preds = %if.end, %for.body10
  br label %for.inc29

for.inc29:                                        ; preds = %if.end28
  %22 = load ptr, ptr %__begin14, align 8
  %incdec.ptr30 = getelementptr inbounds %"class.sat::literal", ptr %22, i32 1
  store ptr %incdec.ptr30, ptr %__begin14, align 8
  br label %for.cond8

for.end31:                                        ; preds = %if.else, %for.cond8
  %23 = load ptr, ptr %c2.addr, align 8
  store ptr %23, ptr %__range132, align 8
  %24 = load ptr, ptr %__range132, align 8
  %call34 = call noundef ptr @_ZNK3sat6clause5beginEv(ptr noundef nonnull align 4 dereferenceable(20) %24)
  store ptr %call34, ptr %__begin133, align 8
  %25 = load ptr, ptr %__range132, align 8
  %call36 = call noundef ptr @_ZNK3sat6clause3endEv(ptr noundef nonnull align 4 dereferenceable(20) %25)
  store ptr %call36, ptr %__end135, align 8
  br label %for.cond37

for.cond37:                                       ; preds = %for.inc43, %for.end31
  %26 = load ptr, ptr %__begin133, align 8
  %27 = load ptr, ptr %__end135, align 8
  %cmp38 = icmp ne ptr %26, %27
  br i1 %cmp38, label %for.body39, label %for.end45

for.body39:                                       ; preds = %for.cond37
  %28 = load ptr, ptr %__begin133, align 8
  call void @llvm.memcpy.p0.p0.i64(ptr align 4 %lit40, ptr align 4 %28, i64 4, i1 false)
  call void @llvm.memcpy.p0.p0.i64(ptr align 4 %agg.tmp41, ptr align 4 %lit40, i64 4, i1 false)
  %coerce.dive42 = getelementptr inbounds %"class.sat::literal", ptr %agg.tmp41, i32 0, i32 0
  %29 = load i32, ptr %coerce.dive42, align 4
  call void @_ZN3sat10simplifier14unmark_visitedENS_7literalE(ptr noundef nonnull align 8 dereferenceable(288) %this1, i32 %29)
  br label %for.inc43

for.inc43:                                        ; preds = %for.body39
  %30 = load ptr, ptr %__begin133, align 8
  %incdec.ptr44 = getelementptr inbounds %"class.sat::literal", ptr %30, i32 1
  store ptr %incdec.ptr44, ptr %__begin133, align 8
  br label %for.cond37

for.end45:                                        ; preds = %for.cond37
  %31 = load i8, ptr %r, align 1
  %tobool = trunc i8 %31 to i1
  ret i1 %tobool
}