; Function Attrs: mustprogress nofree norecurse nosync nounwind memory(readwrite, inaccessiblemem: none) uwtable
define hidden noundef zeroext i1 @_ZN3sat10simplifier9subsumes1ERKNS_6clauseES3_RNS_7literalE(ptr nocapture noundef nonnull readonly align 8 dereferenceable(288) %this, ptr noundef nonnull readonly align 4 dereferenceable(20) %c1, ptr noundef nonnull readonly align 4 dereferenceable(20) %c2, ptr nocapture noundef nonnull writeonly align 4 dereferenceable(4) %l) local_unnamed_addr #5 align 2 {
entry:
  %m_lits.i.ptr.ptr = getelementptr inbounds i8, ptr %c2, i64 20
  %m_size.i = getelementptr inbounds i8, ptr %c2, i64 4
  %0 = load i32, ptr %m_size.i, align 4
  %idx.ext.i = zext i32 %0 to i64
  %add.ptr.i.idx = shl nuw nsw i64 %idx.ext.i, 2
  %1 = getelementptr i8, ptr %c2, i64 %add.ptr.i.idx
  %add.ptr.i.ptr = getelementptr i8, ptr %1, i64 20
  %cmp.not41 = icmp eq i32 %0, 0
  br i1 %cmp.not41, label %for.end, label %for.body.lr.ph

for.body.lr.ph:                                   ; preds = %entry
  %m_visited.i = getelementptr inbounds i8, ptr %this, i64 96
  br label %for.body

for.body:                                         ; preds = %for.body.lr.ph, %for.body
  %__begin1.042 = phi ptr [ %m_lits.i.ptr.ptr, %for.body.lr.ph ], [ %incdec.ptr, %for.body ]
  %lit.sroa.0.0.copyload = load i32, ptr %__begin1.042, align 4
  %2 = load ptr, ptr %m_visited.i, align 8
  %idxprom.i.i = zext i32 %lit.sroa.0.0.copyload to i64
  %arrayidx.i.i = getelementptr inbounds i8, ptr %2, i64 %idxprom.i.i
  store i8 1, ptr %arrayidx.i.i, align 1
  %incdec.ptr = getelementptr inbounds i8, ptr %__begin1.042, i64 4
  %cmp.not = icmp eq ptr %incdec.ptr, %add.ptr.i.ptr
  br i1 %cmp.not, label %for.end, label %for.body

for.end:                                          ; preds = %for.body, %entry
  %.b49 = load i1, ptr @_ZN3satL12null_literalE.0, align 4
  %3 = select i1 %.b49, i32 -2, i32 0
  store i32 %3, ptr %l, align 4
  %m_size.i19 = getelementptr inbounds i8, ptr %c1, i64 4
  %4 = load i32, ptr %m_size.i19, align 4
  %idx.ext.i20 = zext i32 %4 to i64
  %add.ptr.i21.idx = shl nuw nsw i64 %idx.ext.i20, 2
  %5 = getelementptr i8, ptr %c1, i64 %add.ptr.i21.idx
  %add.ptr.i21.ptr = getelementptr i8, ptr %5, i64 20
  %cmp9.not43 = icmp eq i32 %4, 0
  br i1 %cmp9.not43, label %for.end31, label %for.body10.lr.ph

for.body10.lr.ph:                                 ; preds = %for.end
  %m_lits.i17.ptr = getelementptr inbounds i8, ptr %c1, i64 20
  %m_visited.i22 = getelementptr inbounds i8, ptr %this, i64 96
  %.b = load i1, ptr @_ZN3satL12null_literalE.0, align 4
  %6 = select i1 %.b, i32 -2, i32 0
  br label %for.body10

for.body10:                                       ; preds = %for.body10.lr.ph, %for.inc29
  %7 = phi i32 [ %3, %for.body10.lr.ph ], [ %11, %for.inc29 ]
  %__begin14.044 = phi ptr [ %m_lits.i17.ptr, %for.body10.lr.ph ], [ %incdec.ptr30, %for.inc29 ]
  %lit11.sroa.0.0.copyload = load i32, ptr %__begin14.044, align 4
  %8 = load ptr, ptr %m_visited.i22, align 8
  %idxprom.i.i23 = zext i32 %lit11.sroa.0.0.copyload to i64
  %arrayidx.i.i24 = getelementptr inbounds i8, ptr %8, i64 %idxprom.i.i23
  %9 = load i8, ptr %arrayidx.i.i24, align 1
  %cmp.i.not = icmp eq i8 %9, 0
  br i1 %cmp.i.not, label %if.then, label %for.inc29

if.then:                                          ; preds = %for.body10
  %cmp.i25 = icmp eq i32 %7, %6
  br i1 %cmp.i25, label %land.lhs.true, label %if.else

land.lhs.true:                                    ; preds = %if.then
  %xor.i = xor i32 %lit11.sroa.0.0.copyload, 1
  %idxprom.i.i27 = zext i32 %xor.i to i64
  %arrayidx.i.i28 = getelementptr inbounds i8, ptr %8, i64 %idxprom.i.i27
  %10 = load i8, ptr %arrayidx.i.i28, align 1
  %cmp.i29.not = icmp eq i8 %10, 0
  br i1 %cmp.i29.not, label %if.else, label %if.then23

if.then23:                                        ; preds = %land.lhs.true
  store i32 %xor.i, ptr %l, align 4
  br label %for.inc29

if.else:                                          ; preds = %land.lhs.true, %if.then
  store i32 %6, ptr %l, align 4
  br label %for.end31

for.inc29:                                        ; preds = %for.body10, %if.then23
  %11 = phi i32 [ %7, %for.body10 ], [ %xor.i, %if.then23 ]
  %incdec.ptr30 = getelementptr inbounds i8, ptr %__begin14.044, i64 4
  %cmp9.not = icmp eq ptr %incdec.ptr30, %add.ptr.i21.ptr
  br i1 %cmp9.not, label %for.end31, label %for.body10

for.end31:                                        ; preds = %for.inc29, %for.end, %if.else
  %cmp9.not40 = phi i1 [ false, %if.else ], [ true, %for.end ], [ true, %for.inc29 ]
  %12 = load i32, ptr %m_size.i, align 4
  %idx.ext.i34 = zext i32 %12 to i64
  %add.ptr.i35.idx = shl nuw nsw i64 %idx.ext.i34, 2
  %13 = getelementptr i8, ptr %c2, i64 %add.ptr.i35.idx
  %add.ptr.i35.ptr = getelementptr i8, ptr %13, i64 20
  %cmp38.not46 = icmp eq i32 %12, 0
  br i1 %cmp38.not46, label %for.end45, label %for.body39.lr.ph

for.body39.lr.ph:                                 ; preds = %for.end31
  %m_visited.i36 = getelementptr inbounds i8, ptr %this, i64 96
  br label %for.body39

for.body39:                                       ; preds = %for.body39.lr.ph, %for.body39
  %__begin133.047 = phi ptr [ %m_lits.i.ptr.ptr, %for.body39.lr.ph ], [ %incdec.ptr44, %for.body39 ]
  %lit40.sroa.0.0.copyload = load i32, ptr %__begin133.047, align 4
  %14 = load ptr, ptr %m_visited.i36, align 8
  %idxprom.i.i37 = zext i32 %lit40.sroa.0.0.copyload to i64
  %arrayidx.i.i38 = getelementptr inbounds i8, ptr %14, i64 %idxprom.i.i37
  store i8 0, ptr %arrayidx.i.i38, align 1
  %incdec.ptr44 = getelementptr inbounds i8, ptr %__begin133.047, i64 4
  %cmp38.not = icmp eq ptr %incdec.ptr44, %add.ptr.i35.ptr
  br i1 %cmp38.not, label %for.end45, label %for.body39

for.end45:                                        ; preds = %for.body39, %for.end31
  ret i1 %cmp9.not40
}